target datalayout = "e-m:e-p270:32:32-p271:32:32-p272:64:64-i64:64-i128:128-f80:128-n8:16:32:64-S128"
target triple = "x86_64-pc-linux-gnu"

%struct.LOCKTAG = type { i32, i32, i32, i16, i8, i8 }
%struct.TwoPhaseLockRecord = type { %struct.LOCKTAG, i32 }

@.str.4 = private unnamed_addr constant [29 x i8] c"unrecognized lock method: %d\00", align 1
@.str.5 = private unnamed_addr constant [7 x i8] c"lock.c\00", align 1
@__func__.lock_twophase_standby_recover = private unnamed_addr constant [30 x i8] c"lock_twophase_standby_recover\00", align 1

; Function Attrs: nounwind uwtable
define dso_local void @lock_twophase_standby_recover(i32 noundef %0, i16 noundef zeroext %1, ptr noundef %2, i32 noundef %3) #0 {
  %5 = alloca i32, align 4
  %6 = alloca i16, align 2
  %7 = alloca ptr, align 8
  %8 = alloca i32, align 4
  %9 = alloca ptr, align 8
  %10 = alloca ptr, align 8
  %11 = alloca i32, align 4
  %12 = alloca i16, align 2
  store i32 %0, ptr %5, align 4
  store i16 %1, ptr %6, align 2
  store ptr %2, ptr %7, align 8
  store i32 %3, ptr %8, align 4
  call void @llvm.lifetime.start.p0(i64 8, ptr %9) #9
  %13 = load ptr, ptr %7, align 8
  store ptr %13, ptr %9, align 8
  call void @llvm.lifetime.start.p0(i64 8, ptr %10) #9
  call void @llvm.lifetime.start.p0(i64 4, ptr %11) #9
  call void @llvm.lifetime.start.p0(i64 2, ptr %12) #9
  %14 = load ptr, ptr %9, align 8
  %15 = getelementptr inbounds nuw %struct.TwoPhaseLockRecord, ptr %14, i32 0, i32 0
  store ptr %15, ptr %10, align 8
  %16 = load ptr, ptr %9, align 8
  %17 = getelementptr inbounds nuw %struct.TwoPhaseLockRecord, ptr %16, i32 0, i32 1
  %18 = load i32, ptr %17, align 4
  store i32 %18, ptr %11, align 4
  %19 = load ptr, ptr %10, align 8
  %20 = getelementptr inbounds nuw %struct.LOCKTAG, ptr %19, i32 0, i32 5
  %21 = load i8, ptr %20, align 1
  %22 = zext i8 %21 to i16
  store i16 %22, ptr %12, align 2
  %23 = load i16, ptr %12, align 2
  %24 = zext i16 %23 to i32
  %25 = icmp sle i32 %24, 0
  br i1 %25, label %30, label %26

26:                                               ; preds = %4
  %27 = load i16, ptr %12, align 2
  %28 = zext i16 %27 to i64
  %29 = icmp uge i64 %28, 3
  br i1 %29, label %30, label %43

30:                                               ; preds = %26, %4
  br label %31

31:                                               ; preds = %30
  br i1 true, label %32, label %34

32:                                               ; preds = %31
  %33 = call zeroext i1 @errstart_cold(i32 noundef 21, ptr noundef null) #10
  br i1 %33, label %36, label %40

34:                                               ; preds = %31
  %35 = call zeroext i1 @errstart(i32 noundef 21, ptr noundef null)
  br i1 %35, label %36, label %40

36:                                               ; preds = %34, %32
  %37 = load i16, ptr %12, align 2
  %38 = zext i16 %37 to i32
  %39 = call i32 (ptr, ...) @errmsg_internal(ptr noundef @.str.4, i32 noundef %38)
  call void @errfinish(ptr noundef @.str.5, i32 noundef 4459, ptr noundef @__func__.lock_twophase_standby_recover)
  br label %40

40:                                               ; preds = %36, %34, %32
  unreachable

41:                                               ; No predecessors!
  br label %42

42:                                               ; preds = %41
  br label %43

43:                                               ; preds = %42, %26
  %44 = load i32, ptr %11, align 4
  %45 = icmp eq i32 %44, 8
  br i1 %45, label %46, label %60

46:                                               ; preds = %43
  %47 = load ptr, ptr %10, align 8
  %48 = getelementptr inbounds nuw %struct.LOCKTAG, ptr %47, i32 0, i32 4
  %49 = load i8, ptr %48, align 2
  %50 = zext i8 %49 to i32
  %51 = icmp eq i32 %50, 0
  br i1 %51, label %52, label %60

52:                                               ; preds = %46
  %53 = load i32, ptr %5, align 4
  %54 = load ptr, ptr %10, align 8
  %55 = getelementptr inbounds nuw %struct.LOCKTAG, ptr %54, i32 0, i32 0
  %56 = load i32, ptr %55, align 4
  %57 = load ptr, ptr %10, align 8
  %58 = getelementptr inbounds nuw %struct.LOCKTAG, ptr %57, i32 0, i32 1
  %59 = load i32, ptr %58, align 4
  call void @StandbyAcquireAccessExclusiveLock(i32 noundef %53, i32 noundef %56, i32 noundef %59)
  br label %60

60:                                               ; preds = %52, %46, %43
  call void @llvm.lifetime.end.p0(i64 2, ptr %12) #9
  call void @llvm.lifetime.end.p0(i64 4, ptr %11) #9
  call void @llvm.lifetime.end.p0(i64 8, ptr %10) #9
  call void @llvm.lifetime.end.p0(i64 8, ptr %9) #9
  ret void
}