; Function Attrs: nounwind uwtable
define dso_local void @lock_twophase_standby_recover(i32 noundef %0, i16 noundef zeroext %1, ptr noundef readonly captures(none) %2, i32 noundef %3) local_unnamed_addr #0 {
  %5 = getelementptr inbounds nuw i8, ptr %2, i64 15
  %6 = load i8, ptr %5, align 1
  %7 = add i8 %6, -3
  %or.cond = icmp ult i8 %7, -2
  br i1 %or.cond, label %8, label %12

8:                                                ; preds = %4
  %9 = zext i8 %6 to i32
  %10 = tail call zeroext i1 @errstart_cold(i32 noundef 21, ptr noundef null) #18
  tail call void @llvm.assume(i1 %10)
  %11 = tail call i32 (ptr, ...) @errmsg_internal(ptr noundef nonnull @.str.4, i32 noundef %9) #17
  tail call void @errfinish(ptr noundef nonnull @.str.5, i32 noundef 4459, ptr noundef nonnull @__func__.lock_twophase_standby_recover) #17
  unreachable

12:                                               ; preds = %4
  %13 = getelementptr inbounds nuw i8, ptr %2, i64 16
  %14 = load i32, ptr %13, align 4
  %15 = icmp eq i32 %14, 8
  br i1 %15, label %16, label %24

16:                                               ; preds = %12
  %17 = getelementptr inbounds nuw i8, ptr %2, i64 14
  %18 = load i8, ptr %17, align 2
  %19 = icmp eq i8 %18, 0
  br i1 %19, label %20, label %24

20:                                               ; preds = %16
  %21 = load i32, ptr %2, align 4
  %22 = getelementptr inbounds nuw i8, ptr %2, i64 4
  %23 = load i32, ptr %22, align 4
  tail call void @StandbyAcquireAccessExclusiveLock(i32 noundef %0, i32 noundef %21, i32 noundef %23) #17
  br label %24

24:                                               ; preds = %20, %16, %12
  ret void
}